; Function Attrs: mustprogress nounwind uwtable
define noundef signext i8 @_ZN8facebook5velox6common9Tokenizer13peekCharacterEv(ptr noundef nonnull align 8 dereferenceable(72) %this) local_unnamed_addr #3 align 2 {
entry:
  %index_ = getelementptr inbounds i8, ptr %this, i64 48
  %0 = load i32, ptr %index_, align 8
  %conv = sext i32 %0 to i64
  %call = tail call noundef nonnull align 1 dereferenceable(1) ptr @_ZNKSt7__cxx1112basic_stringIcSt11char_traitsIcESaIcEEixEm(ptr noundef nonnull align 8 dereferenceable(32) %this, i64 noundef %conv) #20
  %1 = load i8, ptr %call, align 1
  ret i8 %1
}